; Function Attrs: mustprogress nounwind uwtable
define dso_local noundef ptr @_ZN4llvm12DWARFContext28getCompileUnitForCodeAddressEm(ptr nocapture noundef nonnull readonly align 8 dereferenceable(105) %0, i64 noundef %1) local_unnamed_addr #0 align 2 {
  %3 = getelementptr inbounds nuw i8, ptr %0, i64 16
  %4 = load ptr, ptr %3, align 8
  %5 = load ptr, ptr %4, align 8
  %6 = getelementptr inbounds i8, ptr %5, i64 80
  %7 = load ptr, ptr %6, align 8
  %8 = tail call noundef ptr %7(ptr noundef nonnull align 8 dereferenceable(16) %4) #24
  %9 = tail call noundef i64 @_ZNK4llvm17DWARFDebugAranges11findAddressEm(ptr noundef nonnull align 8 dereferenceable(72) %8, i64 noundef %1) #24
  %10 = load ptr, ptr %3, align 8
  %11 = load ptr, ptr %10, align 8
  %12 = getelementptr inbounds i8, ptr %11, i64 16
  %13 = load ptr, ptr %12, align 8
  %14 = tail call noundef nonnull align 8 dereferenceable(64) ptr %13(ptr noundef nonnull align 8 dereferenceable(16) %10) #24
  %15 = tail call noundef ptr @_ZNK4llvm15DWARFUnitVector16getUnitForOffsetEm(ptr noundef nonnull align 8 dereferenceable(64) %14, i64 noundef %9) #24
  %.not.i.i.i = icmp eq ptr %15, null
  br i1 %.not.i.i.i, label %_ZN4llvm12DWARFContext23getCompileUnitForOffsetEm.exit, label %16

16:                                               ; preds = %2
  %17 = getelementptr inbounds i8, ptr %15, i64 96
  %18 = load i8, ptr %17, align 8
  %19 = and i8 %18, -5
  %spec.select.i.i.i.i.i.i.i.i.not.i.i.i.i = icmp eq i8 %19, 2
  %spec.select.i.i.i.i = select i1 %spec.select.i.i.i.i.i.i.i.i.not.i.i.i.i, ptr null, ptr %15
  br label %_ZN4llvm12DWARFContext23getCompileUnitForOffsetEm.exit

_ZN4llvm12DWARFContext23getCompileUnitForOffsetEm.exit: ; preds = %2, %16
  %.0.i.i.i = phi ptr [ %spec.select.i.i.i.i, %16 ], [ null, %2 ]
  ret ptr %.0.i.i.i
}